; Function Attrs: nofree nounwind memory(argmem: read) uwtable
define noundef ptr @evutil_ascii_strcasestr(ptr noundef readonly captures(ret: address, provenance) %0, ptr noundef readonly captures(none) %1) local_unnamed_addr #22 {
  %3 = getelementptr inbounds nuw i8, ptr %1, i64 1
  %4 = load i8, ptr %1, align 1
  %.not = icmp eq i8 %4, 0
  br i1 %.not, label %evutil_ascii_strncasecmp.exit.thread, label %5

5:                                                ; preds = %2
  %6 = zext i8 %4 to i64
  %7 = getelementptr inbounds nuw [256 x i8], ptr @EVUTIL_TOLOWER_TABLE, i64 0, i64 %6
  %8 = load i8, ptr %7, align 1
  %9 = tail call i64 @strlen(ptr noundef nonnull dereferenceable(1) %3) #32
  br label %evutil_ascii_strncasecmp.exit

evutil_ascii_strncasecmp.exit:                    ; preds = %evutil_ascii_strncasecmp.exit.backedge, %5
  %.2 = phi ptr [ %0, %5 ], [ %13, %evutil_ascii_strncasecmp.exit.backedge ]
  %10 = load i8, ptr %.2, align 1
  %11 = icmp eq i8 %10, 0
  br i1 %11, label %evutil_ascii_strncasecmp.exit.thread, label %12

12:                                               ; preds = %evutil_ascii_strncasecmp.exit
  %13 = getelementptr inbounds nuw i8, ptr %.2, i64 1
  %14 = zext i8 %10 to i64
  %15 = getelementptr inbounds nuw [256 x i8], ptr @EVUTIL_TOLOWER_TABLE, i64 0, i64 %14
  %16 = load i8, ptr %15, align 1
  %.not12 = icmp eq i8 %16, %8
  br i1 %.not12, label %.preheader, label %evutil_ascii_strncasecmp.exit.backedge

evutil_ascii_strncasecmp.exit.backedge:           ; preds = %18, %12
  br label %evutil_ascii_strncasecmp.exit, !llvm.loop !20

.preheader:                                       ; preds = %12, %27
  %.010.i = phi ptr [ %28, %27 ], [ %3, %12 ]
  %.09.i = phi i64 [ %17, %27 ], [ %9, %12 ]
  %.08.i = phi ptr [ %29, %27 ], [ %13, %12 ]
  %17 = add i64 %.09.i, -1
  %.not.i = icmp eq i64 %.09.i, 0
  br i1 %.not.i, label %evutil_ascii_strncasecmp.exit.thread, label %18

18:                                               ; preds = %.preheader
  %19 = load i8, ptr %.08.i, align 1
  %20 = zext i8 %19 to i64
  %21 = getelementptr inbounds nuw [256 x i8], ptr @EVUTIL_TOLOWER_TABLE, i64 0, i64 %20
  %22 = load i8, ptr %21, align 1
  %23 = load i8, ptr %.010.i, align 1
  %24 = zext i8 %23 to i64
  %25 = getelementptr inbounds nuw [256 x i8], ptr @EVUTIL_TOLOWER_TABLE, i64 0, i64 %24
  %26 = load i8, ptr %25, align 1
  %or.cond.not = icmp eq i8 %22, %26
  br i1 %or.cond.not, label %27, label %evutil_ascii_strncasecmp.exit.backedge, !llvm.loop !21

27:                                               ; preds = %18
  %28 = getelementptr inbounds nuw i8, ptr %.010.i, i64 1
  %29 = getelementptr inbounds nuw i8, ptr %.08.i, i64 1
  %30 = icmp eq i8 %19, 0
  br i1 %30, label %evutil_ascii_strncasecmp.exit.thread, label %.preheader, !llvm.loop !19

evutil_ascii_strncasecmp.exit.thread:             ; preds = %evutil_ascii_strncasecmp.exit, %.preheader, %27, %2
  %.0 = phi ptr [ %0, %2 ], [ %.2, %27 ], [ %.2, %.preheader ], [ null, %evutil_ascii_strncasecmp.exit ]
  ret ptr %.0
}